
test.elf:     file format elf32-littleriscv


Disassembly of section .text:

40000000 <_entry>:
40000000:	00001697          	auipc	a3,0x1
40000004:	df068693          	addi	a3,a3,-528 # 40000df0 <_bss_end>
40000008:	00001617          	auipc	a2,0x1
4000000c:	de860613          	addi	a2,a2,-536 # 40000df0 <_bss_end>
40000010:	00001197          	auipc	gp,0x1
40000014:	5d818193          	addi	gp,gp,1496 # 400015e8 <_gp>
40000018:	10000117          	auipc	sp,0x10000
4000001c:	fe410113          	addi	sp,sp,-28 # 4ffffffc <_stack>
40000020:	00001217          	auipc	tp,0x1
40000024:	e0f20213          	addi	tp,tp,-497 # 40000e2f <_bss_end+0x3f>
40000028:	fc027213          	andi	tp,tp,-64

4000002c <BSS_CLEAR>:
4000002c:	0006a023          	sw	zero,0(a3)
40000030:	00468693          	addi	a3,a3,4
40000034:	fec6cce3          	blt	a3,a2,4000002c <BSS_CLEAR>
40000038:	00000d97          	auipc	s11,0x0
4000003c:	0c8d8d93          	addi	s11,s11,200 # 40000100 <_isr>
40000040:	f0000d37          	lui	s10,0xf0000
40000044:	01bd2023          	sw	s11,0(s10) # f0000000 <_stack+0xa0000004>
40000048:	598000ef          	jal	ra,400005e0 <irq_enable>
4000004c:	23c000ef          	jal	ra,40000288 <main>
40000050:	e0000d37          	lui	s10,0xe0000
40000054:	00ad2023          	sw	a0,0(s10) # e0000000 <_stack+0x90000004>

40000058 <L1>:
40000058:	00000063          	beq	zero,zero,40000058 <L1>
	...

400000e0 <_bootsignature>:
400000e0:	6bb1                	c.lui	s7,0xc
400000e2:	b500                	c.fsd	fs0,40(a0)
	...

40000100 <_isr>:
40000100:	00000013          	addi	zero,zero,0
40000104:	fbc10113          	addi	sp,sp,-68
40000108:	00112023          	sw	ra,0(sp)
4000010c:	00512223          	sw	t0,4(sp)
40000110:	00612423          	sw	t1,8(sp)
40000114:	00712623          	sw	t2,12(sp)
40000118:	00a12823          	sw	a0,16(sp)
4000011c:	00b12a23          	sw	a1,20(sp)
40000120:	00c12c23          	sw	a2,24(sp)
40000124:	00d12e23          	sw	a3,28(sp)
40000128:	02e12023          	sw	a4,32(sp)
4000012c:	02f12223          	sw	a5,36(sp)
40000130:	03012423          	sw	a6,40(sp)
40000134:	03112623          	sw	a7,44(sp)
40000138:	03c12823          	sw	t3,48(sp)
4000013c:	03d12a23          	sw	t4,52(sp)
40000140:	03e12c23          	sw	t5,56(sp)
40000144:	03f12e23          	sw	t6,60(sp)
40000148:	f0000d37          	lui	s10,0xf0000
4000014c:	040d0d13          	addi	s10,s10,64 # f0000040 <_stack+0xa0000044>
40000150:	000d2d03          	lw	s10,0(s10)
40000154:	ffcd0d13          	addi	s10,s10,-4
40000158:	05a12023          	sw	s10,64(sp)
4000015c:	f00005b7          	lui	a1,0xf0000
40000160:	0105a503          	lw	a0,16(a1) # f0000010 <_stack+0xa0000014>
40000164:	0205a603          	lw	a2,32(a1)
40000168:	00c57533          	and	a0,a0,a2
4000016c:	00010593          	addi	a1,sp,0
40000170:	06050263          	beq	a0,zero,400001d4 <_exception>
40000174:	4a0000ef          	jal	ra,40000614 <irq_handler>

40000178 <_restore>:
40000178:	01012503          	lw	a0,16(sp)
4000017c:	01412583          	lw	a1,20(sp)

40000180 <_restore_exception>:
40000180:	00012083          	lw	ra,0(sp)
40000184:	00412283          	lw	t0,4(sp)
40000188:	00812303          	lw	t1,8(sp)
4000018c:	00c12383          	lw	t2,12(sp)
40000190:	01812603          	lw	a2,24(sp)
40000194:	01c12683          	lw	a3,28(sp)
40000198:	02012703          	lw	a4,32(sp)
4000019c:	02412783          	lw	a5,36(sp)
400001a0:	02812803          	lw	a6,40(sp)
400001a4:	02c12883          	lw	a7,44(sp)
400001a8:	03012e03          	lw	t3,48(sp)
400001ac:	03412e83          	lw	t4,52(sp)
400001b0:	03812f03          	lw	t5,56(sp)
400001b4:	03c12f83          	lw	t6,60(sp)
400001b8:	04410113          	addi	sp,sp,68
400001bc:	00106d93          	ori	s11,zero,1
400001c0:	f0000d37          	lui	s10,0xf0000
400001c4:	030d0d13          	addi	s10,s10,48 # f0000030 <_stack+0xa0000034>
400001c8:	01bd2023          	sw	s11,0(s10)
400001cc:	ffc12d03          	lw	s10,-4(sp)
400001d0:	000d0067          	jalr	zero,0(s10)

400001d4 <_exception>:
400001d4:	00088513          	addi	a0,a7,0
400001d8:	01412583          	lw	a1,20(sp)
400001dc:	01812603          	lw	a2,24(sp)
400001e0:	01c12683          	lw	a3,28(sp)
400001e4:	480000ef          	jal	ra,40000664 <exception_handler>
400001e8:	f99ff06f          	jal	zero,40000180 <_restore_exception>

400001ec <_interrupt_set>:
400001ec:	f00005b7          	lui	a1,0xf0000
400001f0:	03058593          	addi	a1,a1,48 # f0000030 <_stack+0xa0000034>
400001f4:	0005a603          	lw	a2,0(a1)
400001f8:	00a5a023          	sw	a0,0(a1)
400001fc:	00060513          	addi	a0,a2,0
40000200:	00008067          	jalr	zero,0(ra)

40000204 <setjmp>:
40000204:	00852023          	sw	s0,0(a0)
40000208:	00952223          	sw	s1,4(a0)
4000020c:	01252423          	sw	s2,8(a0)
40000210:	01352623          	sw	s3,12(a0)
40000214:	01452823          	sw	s4,16(a0)
40000218:	01552a23          	sw	s5,20(a0)
4000021c:	01652c23          	sw	s6,24(a0)
40000220:	01752e23          	sw	s7,28(a0)
40000224:	03852023          	sw	s8,32(a0)
40000228:	03952223          	sw	s9,36(a0)
4000022c:	02452623          	sw	tp,44(a0)
40000230:	02252823          	sw	sp,48(a0)
40000234:	02152a23          	sw	ra,52(a0)
40000238:	00006513          	ori	a0,zero,0
4000023c:	00008067          	jalr	zero,0(ra)

40000240 <longjmp>:
40000240:	00052403          	lw	s0,0(a0)
40000244:	00452483          	lw	s1,4(a0)
40000248:	00852903          	lw	s2,8(a0)
4000024c:	00c52983          	lw	s3,12(a0)
40000250:	01052a03          	lw	s4,16(a0)
40000254:	01452a83          	lw	s5,20(a0)
40000258:	01852b03          	lw	s6,24(a0)
4000025c:	01c52b83          	lw	s7,28(a0)
40000260:	02052c03          	lw	s8,32(a0)
40000264:	02452c83          	lw	s9,36(a0)
40000268:	02c52203          	lw	tp,44(a0)
4000026c:	03052103          	lw	sp,48(a0)
40000270:	03452083          	lw	ra,52(a0)
40000274:	0005e513          	ori	a0,a1,0
40000278:	00008067          	jalr	zero,0(ra)

4000027c <syscall>:
4000027c:	00050893          	addi	a7,a0,0
40000280:	00000073          	ecall
40000284:	00008067          	jalr	zero,0(ra)

40000288 <main>:
40000288:	40001537          	lui	a0,0x40001
4000028c:	fc010113          	addi	sp,sp,-64
40000290:	bc050513          	addi	a0,a0,-1088 # 40000bc0 <_etext>
40000294:	02112e23          	sw	ra,60(sp)
40000298:	02812c23          	sw	s0,56(sp)
4000029c:	02912a23          	sw	s1,52(sp)
400002a0:	03212823          	sw	s2,48(sp)
400002a4:	03312623          	sw	s3,44(sp)
400002a8:	03412423          	sw	s4,40(sp)
400002ac:	011000ef          	jal	ra,40000abc <printf>
400002b0:	01c12783          	lw	a5,28(sp)
400002b4:	00000813          	addi	a6,zero,0
400002b8:	00000893          	addi	a7,zero,0
400002bc:	40001a37          	lui	s4,0x40001
400002c0:	0107a023          	sw	a6,0(a5)
400002c4:	0117a223          	sw	a7,4(a5)
400002c8:	03200693          	addi	a3,zero,50
400002cc:	00800613          	addi	a2,zero,8
400002d0:	02a00593          	addi	a1,zero,42
400002d4:	bd0a0513          	addi	a0,s4,-1072 # 40000bd0 <_etext+0x10>
400002d8:	7e4000ef          	jal	ra,40000abc <printf>
400002dc:	40001537          	lui	a0,0x40001
400002e0:	01c10593          	addi	a1,sp,28
400002e4:	bdc50513          	addi	a0,a0,-1060 # 40000bdc <_etext+0x1c>
400002e8:	7d4000ef          	jal	ra,40000abc <printf>
400002ec:	400c34b7          	lui	s1,0x400c3
400002f0:	4a048493          	addi	s1,s1,1184 # 400c34a0 <_gp+0xc1eb8>
400002f4:	01c10793          	addi	a5,sp,28
400002f8:	000189b7          	lui	s3,0x18
400002fc:	009784b3          	add	s1,a5,s1
40000300:	00000413          	addi	s0,zero,0
40000304:	40001937          	lui	s2,0x40001
40000308:	6a098993          	addi	s3,s3,1696 # 186a0 <_entry-0x3ffe7960>
4000030c:	0004a603          	lw	a2,0(s1)
40000310:	00040593          	addi	a1,s0,0
40000314:	be890513          	addi	a0,s2,-1048 # 40000be8 <_etext+0x28>
40000318:	00140413          	addi	s0,s0,1
4000031c:	7a0000ef          	jal	ra,40000abc <printf>
40000320:	00448493          	addi	s1,s1,4
40000324:	ff3414e3          	bne	s0,s3,4000030c <main+0x84>
40000328:	02010713          	addi	a4,sp,32
4000032c:	400627b7          	lui	a5,0x40062
40000330:	00f707b3          	add	a5,a4,a5
40000334:	a1c7a603          	lw	a2,-1508(a5) # 40061a1c <_gp+0x60434>
40000338:	00040593          	addi	a1,s0,0
4000033c:	be890513          	addi	a0,s2,-1048
40000340:	00f12623          	sw	a5,12(sp)
40000344:	778000ef          	jal	ra,40000abc <printf>
40000348:	00c12783          	lw	a5,12(sp)
4000034c:	03200637          	lui	a2,0x3200
40000350:	79360613          	addi	a2,a2,1939 # 3200793 <_entry-0x3cdff86d>
40000354:	00040593          	addi	a1,s0,0
40000358:	a0c7ae23          	sw	a2,-1508(a5)
4000035c:	be890513          	addi	a0,s2,-1048
40000360:	75c000ef          	jal	ra,40000abc <printf>
40000364:	bd0a0513          	addi	a0,s4,-1072
40000368:	03200693          	addi	a3,zero,50
4000036c:	00800613          	addi	a2,zero,8
40000370:	02a00593          	addi	a1,zero,42
40000374:	748000ef          	jal	ra,40000abc <printf>
40000378:	03c12083          	lw	ra,60(sp)
4000037c:	03812403          	lw	s0,56(sp)
40000380:	03412483          	lw	s1,52(sp)
40000384:	03012903          	lw	s2,48(sp)
40000388:	02c12983          	lw	s3,44(sp)
4000038c:	02812a03          	lw	s4,40(sp)
40000390:	04010113          	addi	sp,sp,64
40000394:	00008067          	jalr	zero,0(ra)

40000398 <dummy_handler>:
40000398:	40001537          	lui	a0,0x40001
4000039c:	bf850513          	addi	a0,a0,-1032 # 40000bf8 <_etext+0x38>
400003a0:	71c0006f          	jal	zero,40000abc <printf>

400003a4 <irq0_handler>:
400003a4:	e10007b7          	lui	a5,0xe1000
400003a8:	fd010113          	addi	sp,sp,-48
400003ac:	4007a783          	lw	a5,1024(a5) # e1000400 <_stack+0x91000404>
400003b0:	01412c23          	sw	s4,24(sp)
400003b4:	01512a23          	sw	s5,20(sp)
400003b8:	40001a37          	lui	s4,0x40001
400003bc:	40001ab7          	lui	s5,0x40001
400003c0:	03212023          	sw	s2,32(sp)
400003c4:	01312e23          	sw	s3,28(sp)
400003c8:	02112623          	sw	ra,44(sp)
400003cc:	02812423          	sw	s0,40(sp)
400003d0:	02912223          	sw	s1,36(sp)
400003d4:	01612823          	sw	s6,16(sp)
400003d8:	01712623          	sw	s7,12(sp)
400003dc:	01812423          	sw	s8,8(sp)
400003e0:	01912223          	sw	s9,4(sp)
400003e4:	02000993          	addi	s3,zero,32
400003e8:	00100913          	addi	s2,zero,1
400003ec:	da8a0a13          	addi	s4,s4,-600 # 40000da8 <timer_vector>
400003f0:	d78a8a93          	addi	s5,s5,-648 # 40000d78 <gpio_vector>
400003f4:	e10007b7          	lui	a5,0xe1000
400003f8:	4007a703          	lw	a4,1024(a5) # e1000400 <_stack+0x91000404>
400003fc:	00191913          	slli	s2,s2,0x1
40000400:	04070c63          	beq	a4,zero,40000458 <irq0_handler+0xb4>
40000404:	fff98993          	addi	s3,s3,-1
40000408:	04098863          	beq	s3,zero,40000458 <irq0_handler+0xb4>
4000040c:	4007a783          	lw	a5,1024(a5)
40000410:	02000713          	addi	a4,zero,32
40000414:	0127f7b3          	and	a5,a5,s2
40000418:	00f76e63          	bltu	a4,a5,40000434 <irq0_handler+0x90>
4000041c:	40001737          	lui	a4,0x40001
40000420:	00279793          	slli	a5,a5,0x2
40000424:	c2870713          	addi	a4,a4,-984 # 40000c28 <_etext+0x68>
40000428:	00e787b3          	add	a5,a5,a4
4000042c:	0007a783          	lw	a5,0(a5)
40000430:	00078067          	jalr	zero,0(a5)
40000434:	e10007b7          	lui	a5,0xe1000
40000438:	4007a583          	lw	a1,1024(a5) # e1000400 <_stack+0x91000404>
4000043c:	40001537          	lui	a0,0x40001
40000440:	c0050513          	addi	a0,a0,-1024 # 40000c00 <_etext+0x40>
40000444:	678000ef          	jal	ra,40000abc <printf>
40000448:	e10007b7          	lui	a5,0xe1000
4000044c:	4007a703          	lw	a4,1024(a5) # e1000400 <_stack+0x91000404>
40000450:	00191913          	slli	s2,s2,0x1
40000454:	fa0718e3          	bne	a4,zero,40000404 <irq0_handler+0x60>
40000458:	02c12083          	lw	ra,44(sp)
4000045c:	02812403          	lw	s0,40(sp)
40000460:	02412483          	lw	s1,36(sp)
40000464:	02012903          	lw	s2,32(sp)
40000468:	01c12983          	lw	s3,28(sp)
4000046c:	01812a03          	lw	s4,24(sp)
40000470:	01412a83          	lw	s5,20(sp)
40000474:	01012b03          	lw	s6,16(sp)
40000478:	00c12b83          	lw	s7,12(sp)
4000047c:	00812c03          	lw	s8,8(sp)
40000480:	00412c83          	lw	s9,4(sp)
40000484:	03010113          	addi	sp,sp,48
40000488:	00008067          	jalr	zero,0(ra)
4000048c:	e10217b7          	lui	a5,0xe1021
40000490:	e1020737          	lui	a4,0xe1020
40000494:	40072403          	lw	s0,1024(a4) # e1020400 <_stack+0x91020404>
40000498:	8007a703          	lw	a4,-2048(a5) # e1020800 <_stack+0x91020804>
4000049c:	c007a783          	lw	a5,-1024(a5)
400004a0:	00000493          	addi	s1,zero,0
400004a4:	00e44433          	xor	s0,s0,a4
400004a8:	00f47433          	and	s0,s0,a5
400004ac:	e1021bb7          	lui	s7,0xe1021
400004b0:	00100b13          	addi	s6,zero,1
400004b4:	00147793          	andi	a5,s0,1
400004b8:	02078263          	beq	a5,zero,400004dc <irq0_handler+0x138>
400004bc:	800ba683          	lw	a3,-2048(s7) # e1020800 <_stack+0x91020804>
400004c0:	00249713          	slli	a4,s1,0x2
400004c4:	00ea0733          	add	a4,s4,a4
400004c8:	00072703          	lw	a4,0(a4)
400004cc:	009b17b3          	sll	a5,s6,s1
400004d0:	00d7c7b3          	xor	a5,a5,a3
400004d4:	80fba023          	sw	a5,-2048(s7)
400004d8:	000700e7          	jalr	ra,0(a4)
400004dc:	00145413          	srli	s0,s0,0x1
400004e0:	00148493          	addi	s1,s1,1
400004e4:	fc0418e3          	bne	s0,zero,400004b4 <irq0_handler+0x110>
400004e8:	f0dff06f          	jal	zero,400003f4 <irq0_handler+0x50>
400004ec:	e10117b7          	lui	a5,0xe1011
400004f0:	e1010737          	lui	a4,0xe1010
400004f4:	40072403          	lw	s0,1024(a4) # e1010400 <_stack+0x91010404>
400004f8:	8007a703          	lw	a4,-2048(a5) # e1010800 <_stack+0x91010804>
400004fc:	c007a783          	lw	a5,-1024(a5)
40000500:	00000c93          	addi	s9,zero,0
40000504:	00e44433          	xor	s0,s0,a4
40000508:	00f47433          	and	s0,s0,a5
4000050c:	00200c13          	addi	s8,zero,2
40000510:	e1015bb7          	lui	s7,0xe1015
40000514:	00300b13          	addi	s6,zero,3
40000518:	e10144b7          	lui	s1,0xe1014
4000051c:	00147793          	andi	a5,s0,1
40000520:	04078063          	beq	a5,zero,40000560 <irq0_handler+0x1bc>
40000524:	078c8a63          	beq	s9,s8,40000598 <irq0_handler+0x1f4>
40000528:	059c6463          	bltu	s8,s9,40000570 <irq0_handler+0x1cc>
4000052c:	080c8863          	beq	s9,zero,400005bc <irq0_handler+0x218>
40000530:	4204a783          	lw	a5,1056(s1) # e1014420 <_stack+0x91014424>
40000534:	4304a603          	lw	a2,1072(s1)
40000538:	4404a683          	lw	a3,1088(s1)
4000053c:	4304a703          	lw	a4,1072(s1)
40000540:	00c7c7b3          	xor	a5,a5,a2
40000544:	00d7f7b3          	and	a5,a5,a3
40000548:	00e7c7b3          	xor	a5,a5,a4
4000054c:	42f4a823          	sw	a5,1072(s1)
40000550:	002c9793          	slli	a5,s9,0x2
40000554:	00fa87b3          	add	a5,s5,a5
40000558:	0007a783          	lw	a5,0(a5)
4000055c:	000780e7          	jalr	ra,0(a5)
40000560:	00145413          	srli	s0,s0,0x1
40000564:	001c8c93          	addi	s9,s9,1
40000568:	fa041ae3          	bne	s0,zero,4000051c <irq0_handler+0x178>
4000056c:	e89ff06f          	jal	zero,400003f4 <irq0_handler+0x50>
40000570:	ff6c90e3          	bne	s9,s6,40000550 <irq0_handler+0x1ac>
40000574:	c20ba783          	lw	a5,-992(s7) # e1014c20 <_stack+0x91014c24>
40000578:	c30ba603          	lw	a2,-976(s7)
4000057c:	c40ba683          	lw	a3,-960(s7)
40000580:	c30ba703          	lw	a4,-976(s7)
40000584:	00c7c7b3          	xor	a5,a5,a2
40000588:	00d7f7b3          	and	a5,a5,a3
4000058c:	00e7c7b3          	xor	a5,a5,a4
40000590:	c2fba823          	sw	a5,-976(s7)
40000594:	fbdff06f          	jal	zero,40000550 <irq0_handler+0x1ac>
40000598:	820ba783          	lw	a5,-2016(s7)
4000059c:	830ba603          	lw	a2,-2000(s7)
400005a0:	840ba683          	lw	a3,-1984(s7)
400005a4:	830ba703          	lw	a4,-2000(s7)
400005a8:	00c7c7b3          	xor	a5,a5,a2
400005ac:	00d7f7b3          	and	a5,a5,a3
400005b0:	00e7c7b3          	xor	a5,a5,a4
400005b4:	82fba823          	sw	a5,-2000(s7)
400005b8:	f99ff06f          	jal	zero,40000550 <irq0_handler+0x1ac>
400005bc:	0204a783          	lw	a5,32(s1)
400005c0:	0304a603          	lw	a2,48(s1)
400005c4:	0404a683          	lw	a3,64(s1)
400005c8:	0304a703          	lw	a4,48(s1)
400005cc:	00c7c7b3          	xor	a5,a5,a2
400005d0:	00d7f7b3          	and	a5,a5,a3
400005d4:	00e7c7b3          	xor	a5,a5,a4
400005d8:	02f4a823          	sw	a5,48(s1)
400005dc:	f75ff06f          	jal	zero,40000550 <irq0_handler+0x1ac>

400005e0 <irq_enable>:
400005e0:	e10347b7          	lui	a5,0xe1034
400005e4:	1b200713          	addi	a4,zero,434
400005e8:	00e7a823          	sw	a4,16(a5) # e1034010 <_stack+0x91034014>
400005ec:	0007a023          	sw	zero,0(a5)
400005f0:	e1004637          	lui	a2,0xe1004
400005f4:	00062783          	lw	a5,0(a2) # e1004000 <_stack+0x91004004>
400005f8:	f0000737          	lui	a4,0xf0000
400005fc:	00100693          	addi	a3,zero,1
40000600:	1507e793          	ori	a5,a5,336
40000604:	00f62023          	sw	a5,0(a2)
40000608:	02d72023          	sw	a3,32(a4) # f0000020 <_stack+0xa0000024>
4000060c:	02d72823          	sw	a3,48(a4)
40000610:	00008067          	jalr	zero,0(ra)

40000614 <irq_handler>:
40000614:	ff010113          	addi	sp,sp,-16
40000618:	00912223          	sw	s1,4(sp)
4000061c:	400014b7          	lui	s1,0x40001
40000620:	00812423          	sw	s0,8(sp)
40000624:	00112623          	sw	ra,12(sp)
40000628:	00050413          	addi	s0,a0,0
4000062c:	d8848493          	addi	s1,s1,-632 # 40000d88 <irq_vector>
40000630:	00147793          	andi	a5,s0,1
40000634:	00145413          	srli	s0,s0,0x1
40000638:	00078863          	beq	a5,zero,40000648 <irq_handler+0x34>
4000063c:	0004a783          	lw	a5,0(s1)
40000640:	00078463          	beq	a5,zero,40000648 <irq_handler+0x34>
40000644:	000780e7          	jalr	ra,0(a5)
40000648:	00448493          	addi	s1,s1,4
4000064c:	fe0412e3          	bne	s0,zero,40000630 <irq_handler+0x1c>
40000650:	00c12083          	lw	ra,12(sp)
40000654:	00812403          	lw	s0,8(sp)
40000658:	00412483          	lw	s1,4(sp)
4000065c:	01010113          	addi	sp,sp,16
40000660:	00008067          	jalr	zero,0(ra)

40000664 <exception_handler>:
40000664:	00068713          	addi	a4,a3,0
40000668:	00060693          	addi	a3,a2,0
4000066c:	00058613          	addi	a2,a1,0
40000670:	00050593          	addi	a1,a0,0
40000674:	40001537          	lui	a0,0x40001
40000678:	ff010113          	addi	sp,sp,-16
4000067c:	cac50513          	addi	a0,a0,-852 # 40000cac <_etext+0xec>
40000680:	00112623          	sw	ra,12(sp)
40000684:	438000ef          	jal	ra,40000abc <printf>
40000688:	00c12083          	lw	ra,12(sp)
4000068c:	fff00513          	addi	a0,zero,-1
40000690:	01010113          	addi	sp,sp,16
40000694:	00008067          	jalr	zero,0(ra)

40000698 <printchar.part.0>:
40000698:	e1030737          	lui	a4,0xe1030
4000069c:	40072783          	lw	a5,1024(a4) # e1030400 <_stack+0x91030404>
400006a0:	0027f793          	andi	a5,a5,2
400006a4:	fe079ce3          	bne	a5,zero,4000069c <printchar.part.0+0x4>
400006a8:	e10347b7          	lui	a5,0xe1034
400006ac:	00a7a023          	sw	a0,0(a5) # e1034000 <_stack+0x91034004>
400006b0:	00008067          	jalr	zero,0(ra)

400006b4 <vsprintf>:
400006b4:	fb010113          	addi	sp,sp,-80
400006b8:	04812423          	sw	s0,72(sp)
400006bc:	04112623          	sw	ra,76(sp)
400006c0:	04912223          	sw	s1,68(sp)
400006c4:	05212023          	sw	s2,64(sp)
400006c8:	03312e23          	sw	s3,60(sp)
400006cc:	03412c23          	sw	s4,56(sp)
400006d0:	03512a23          	sw	s5,52(sp)
400006d4:	03612823          	sw	s6,48(sp)
400006d8:	03712623          	sw	s7,44(sp)
400006dc:	03812423          	sw	s8,40(sp)
400006e0:	03912223          	sw	s9,36(sp)
400006e4:	0005c783          	lbu	a5,0(a1)
400006e8:	00c12223          	sw	a2,4(sp)
400006ec:	00050413          	addi	s0,a0,0
400006f0:	26078c63          	beq	a5,zero,40000968 <vsprintf+0x2b4>
400006f4:	40001b37          	lui	s6,0x40001
400006f8:	cf4b0713          	addi	a4,s6,-780 # 40000cf4 <_etext+0x134>
400006fc:	40001ab7          	lui	s5,0x40001
40000700:	00e12623          	sw	a4,12(sp)
40000704:	ce0a8713          	addi	a4,s5,-800 # 40000ce0 <_etext+0x120>
40000708:	00058913          	addi	s2,a1,0
4000070c:	00e12423          	sw	a4,8(sp)
40000710:	01010993          	addi	s3,sp,16
40000714:	0300006f          	jal	zero,40000744 <vsprintf+0x90>
40000718:	30040c63          	beq	s0,zero,40000a30 <vsprintf+0x37c>
4000071c:	00042683          	lw	a3,0(s0)
40000720:	000c0713          	addi	a4,s8,0
40000724:	00090c13          	addi	s8,s2,0
40000728:	00f68023          	sb	a5,0(a3)
4000072c:	00042783          	lw	a5,0(s0)
40000730:	00070913          	addi	s2,a4,0
40000734:	00178793          	addi	a5,a5,1
40000738:	00f42023          	sw	a5,0(s0)
4000073c:	001c4783          	lbu	a5,1(s8)
40000740:	22078463          	beq	a5,zero,40000968 <vsprintf+0x2b4>
40000744:	02500713          	addi	a4,zero,37
40000748:	00190c13          	addi	s8,s2,1
4000074c:	fce796e3          	bne	a5,a4,40000718 <vsprintf+0x64>
40000750:	00194783          	lbu	a5,1(s2)
40000754:	03000713          	addi	a4,zero,48
40000758:	02000a93          	addi	s5,zero,32
4000075c:	00e79863          	bne	a5,a4,4000076c <vsprintf+0xb8>
40000760:	00294783          	lbu	a5,2(s2)
40000764:	00290c13          	addi	s8,s2,2
40000768:	03000a93          	addi	s5,zero,48
4000076c:	fd078713          	addi	a4,a5,-48
40000770:	0ff77713          	andi	a4,a4,255
40000774:	00900593          	addi	a1,zero,9
40000778:	fff00b13          	addi	s6,zero,-1
4000077c:	2ce5f663          	bgeu	a1,a4,40000a48 <vsprintf+0x394>
40000780:	06c00713          	addi	a4,zero,108
40000784:	001c0913          	addi	s2,s8,1
40000788:	00e79a63          	bne	a5,a4,4000079c <vsprintf+0xe8>
4000078c:	002c0713          	addi	a4,s8,2
40000790:	001c4783          	lbu	a5,1(s8)
40000794:	00090c13          	addi	s8,s2,0
40000798:	00070913          	addi	s2,a4,0
4000079c:	fa878793          	addi	a5,a5,-88
400007a0:	0ff7f793          	andi	a5,a5,255
400007a4:	02000713          	addi	a4,zero,32
400007a8:	f8f76ae3          	bltu	a4,a5,4000073c <vsprintf+0x88>
400007ac:	00c12703          	lw	a4,12(sp)
400007b0:	00279793          	slli	a5,a5,0x2
400007b4:	00e787b3          	add	a5,a5,a4
400007b8:	0007a783          	lw	a5,0(a5)
400007bc:	00078067          	jalr	zero,0(a5)
400007c0:	00412783          	lw	a5,4(sp)
400007c4:	01000593          	addi	a1,zero,16
400007c8:	0007a483          	lw	s1,0(a5)
400007cc:	00478793          	addi	a5,a5,4
400007d0:	00f12223          	sw	a5,4(sp)
400007d4:	0a049a63          	bne	s1,zero,40000888 <vsprintf+0x1d4>
400007d8:	03000793          	addi	a5,zero,48
400007dc:	00f10823          	sb	a5,16(sp)
400007e0:	00100793          	addi	a5,zero,1
400007e4:	ffeb0c93          	addi	s9,s6,-2
400007e8:	03000513          	addi	a0,zero,48
400007ec:	0567d463          	bge	a5,s6,40000834 <vsprintf+0x180>
400007f0:	02040463          	beq	s0,zero,40000818 <vsprintf+0x164>
400007f4:	00042783          	lw	a5,0(s0)
400007f8:	01578023          	sb	s5,0(a5)
400007fc:	00042783          	lw	a5,0(s0)
40000800:	00178793          	addi	a5,a5,1
40000804:	00f42023          	sw	a5,0(s0)
40000808:	fffc8793          	addi	a5,s9,-1
4000080c:	01905e63          	bge	zero,s9,40000828 <vsprintf+0x174>
40000810:	00078c93          	addi	s9,a5,0
40000814:	fe0410e3          	bne	s0,zero,400007f4 <vsprintf+0x140>
40000818:	000a8513          	addi	a0,s5,0
4000081c:	e7dff0ef          	jal	ra,40000698 <printchar.part.0>
40000820:	fffc8793          	addi	a5,s9,-1
40000824:	ff9046e3          	blt	zero,s9,40000810 <vsprintf+0x15c>
40000828:	02010793          	addi	a5,sp,32
4000082c:	009787b3          	add	a5,a5,s1
40000830:	ff07c503          	lbu	a0,-16(a5)
40000834:	009984b3          	add	s1,s3,s1
40000838:	02040663          	beq	s0,zero,40000864 <vsprintf+0x1b0>
4000083c:	00042783          	lw	a5,0(s0)
40000840:	00a78023          	sb	a0,0(a5)
40000844:	00042783          	lw	a5,0(s0)
40000848:	00178793          	addi	a5,a5,1
4000084c:	00f42023          	sw	a5,0(s0)
40000850:	fff48793          	addi	a5,s1,-1
40000854:	ee9984e3          	beq	s3,s1,4000073c <vsprintf+0x88>
40000858:	fff4c503          	lbu	a0,-1(s1)
4000085c:	00078493          	addi	s1,a5,0
40000860:	fc041ee3          	bne	s0,zero,4000083c <vsprintf+0x188>
40000864:	fe0506e3          	beq	a0,zero,40000850 <vsprintf+0x19c>
40000868:	e31ff0ef          	jal	ra,40000698 <printchar.part.0>
4000086c:	fe5ff06f          	jal	zero,40000850 <vsprintf+0x19c>
40000870:	00412783          	lw	a5,4(sp)
40000874:	00a00593          	addi	a1,zero,10
40000878:	0007a483          	lw	s1,0(a5)
4000087c:	00478793          	addi	a5,a5,4
40000880:	00f12223          	sw	a5,4(sp)
40000884:	f4048ae3          	beq	s1,zero,400007d8 <vsprintf+0x124>
40000888:	00058a13          	addi	s4,a1,0
4000088c:	00048c93          	addi	s9,s1,0
40000890:	00000b93          	addi	s7,zero,0
40000894:	000a0593          	addi	a1,s4,0
40000898:	000c8513          	addi	a0,s9,0
4000089c:	268000ef          	jal	ra,40000b04 <__udivsi3>
400008a0:	00050813          	addi	a6,a0,0
400008a4:	000a0593          	addi	a1,s4,0
400008a8:	000c8513          	addi	a0,s9,0
400008ac:	01912023          	sw	s9,0(sp)
400008b0:	00080c93          	addi	s9,a6,0
400008b4:	2b8000ef          	jal	ra,40000b6c <__umodsi3>
400008b8:	00812783          	lw	a5,8(sp)
400008bc:	000b8493          	addi	s1,s7,0
400008c0:	001b8b93          	addi	s7,s7,1
400008c4:	00a78533          	add	a0,a5,a0
400008c8:	00054503          	lbu	a0,0(a0)
400008cc:	00012783          	lw	a5,0(sp)
400008d0:	01798833          	add	a6,s3,s7
400008d4:	fea80fa3          	sb	a0,-1(a6)
400008d8:	fb47fee3          	bgeu	a5,s4,40000894 <vsprintf+0x1e0>
400008dc:	417b0733          	sub	a4,s6,s7
400008e0:	fff70c93          	addi	s9,a4,-1
400008e4:	f0e046e3          	blt	zero,a4,400007f0 <vsprintf+0x13c>
400008e8:	009984b3          	add	s1,s3,s1
400008ec:	f4dff06f          	jal	zero,40000838 <vsprintf+0x184>
400008f0:	00412783          	lw	a5,4(sp)
400008f4:	00a00593          	addi	a1,zero,10
400008f8:	0007a483          	lw	s1,0(a5)
400008fc:	00478a13          	addi	s4,a5,4
40000900:	01412223          	sw	s4,4(sp)
40000904:	ec04d8e3          	bge	s1,zero,400007d4 <vsprintf+0x120>
40000908:	40900cb3          	sub	s9,zero,s1
4000090c:	1a040263          	beq	s0,zero,40000ab0 <vsprintf+0x3fc>
40000910:	00042703          	lw	a4,0(s0)
40000914:	02d00593          	addi	a1,zero,45
40000918:	00b70023          	sb	a1,0(a4)
4000091c:	00042703          	lw	a4,0(s0)
40000920:	00170713          	addi	a4,a4,1
40000924:	00e42023          	sw	a4,0(s0)
40000928:	01412223          	sw	s4,4(sp)
4000092c:	fffb0b13          	addi	s6,s6,-1
40000930:	00a00a13          	addi	s4,zero,10
40000934:	f5dff06f          	jal	zero,40000890 <vsprintf+0x1dc>
40000938:	00412703          	lw	a4,4(sp)
4000093c:	00072783          	lw	a5,0(a4)
40000940:	00470a13          	addi	s4,a4,4
40000944:	14040263          	beq	s0,zero,40000a88 <vsprintf+0x3d4>
40000948:	00042703          	lw	a4,0(s0)
4000094c:	01412223          	sw	s4,4(sp)
40000950:	00f70023          	sb	a5,0(a4)
40000954:	00042783          	lw	a5,0(s0)
40000958:	00178793          	addi	a5,a5,1
4000095c:	00f42023          	sw	a5,0(s0)
40000960:	001c4783          	lbu	a5,1(s8)
40000964:	de0790e3          	bne	a5,zero,40000744 <vsprintf+0x90>
40000968:	00040c63          	beq	s0,zero,40000980 <vsprintf+0x2cc>
4000096c:	00042783          	lw	a5,0(s0)
40000970:	00078023          	sb	zero,0(a5)
40000974:	00042783          	lw	a5,0(s0)
40000978:	00178793          	addi	a5,a5,1
4000097c:	00f42023          	sw	a5,0(s0)
40000980:	04c12083          	lw	ra,76(sp)
40000984:	04812403          	lw	s0,72(sp)
40000988:	04412483          	lw	s1,68(sp)
4000098c:	04012903          	lw	s2,64(sp)
40000990:	03c12983          	lw	s3,60(sp)
40000994:	03812a03          	lw	s4,56(sp)
40000998:	03412a83          	lw	s5,52(sp)
4000099c:	03012b03          	lw	s6,48(sp)
400009a0:	02c12b83          	lw	s7,44(sp)
400009a4:	02812c03          	lw	s8,40(sp)
400009a8:	02412c83          	lw	s9,36(sp)
400009ac:	00000513          	addi	a0,zero,0
400009b0:	05010113          	addi	sp,sp,80
400009b4:	00008067          	jalr	zero,0(ra)
400009b8:	00412783          	lw	a5,4(sp)
400009bc:	0007a483          	lw	s1,0(a5)
400009c0:	00478a13          	addi	s4,a5,4
400009c4:	0a048a63          	beq	s1,zero,40000a78 <vsprintf+0x3c4>
400009c8:	0004c503          	lbu	a0,0(s1)
400009cc:	02050863          	beq	a0,zero,400009fc <vsprintf+0x348>
400009d0:	040b0c63          	beq	s6,zero,40000a28 <vsprintf+0x374>
400009d4:	0c040463          	beq	s0,zero,40000a9c <vsprintf+0x3e8>
400009d8:	00042783          	lw	a5,0(s0)
400009dc:	00a78023          	sb	a0,0(a5)
400009e0:	00042783          	lw	a5,0(s0)
400009e4:	00178793          	addi	a5,a5,1
400009e8:	00f42023          	sw	a5,0(s0)
400009ec:	0014c503          	lbu	a0,1(s1)
400009f0:	fffb0b13          	addi	s6,s6,-1
400009f4:	00148493          	addi	s1,s1,1
400009f8:	fc051ce3          	bne	a0,zero,400009d0 <vsprintf+0x31c>
400009fc:	fffb0493          	addi	s1,s6,-1
40000a00:	fff00c93          	addi	s9,zero,-1
40000a04:	03605263          	bge	zero,s6,40000a28 <vsprintf+0x374>
40000a08:	08040e63          	beq	s0,zero,40000aa4 <vsprintf+0x3f0>
40000a0c:	00042783          	lw	a5,0(s0)
40000a10:	01578023          	sb	s5,0(a5)
40000a14:	00042783          	lw	a5,0(s0)
40000a18:	00178793          	addi	a5,a5,1
40000a1c:	00f42023          	sw	a5,0(s0)
40000a20:	fff48493          	addi	s1,s1,-1
40000a24:	ff9492e3          	bne	s1,s9,40000a08 <vsprintf+0x354>
40000a28:	01412223          	sw	s4,4(sp)
40000a2c:	d11ff06f          	jal	zero,4000073c <vsprintf+0x88>
40000a30:	00078513          	addi	a0,a5,0
40000a34:	c65ff0ef          	jal	ra,40000698 <printchar.part.0>
40000a38:	000c0793          	addi	a5,s8,0
40000a3c:	00090c13          	addi	s8,s2,0
40000a40:	00078913          	addi	s2,a5,0
40000a44:	cf9ff06f          	jal	zero,4000073c <vsprintf+0x88>
40000a48:	00000b13          	addi	s6,zero,0
40000a4c:	002b1713          	slli	a4,s6,0x2
40000a50:	01670733          	add	a4,a4,s6
40000a54:	001c0c13          	addi	s8,s8,1
40000a58:	00171713          	slli	a4,a4,0x1
40000a5c:	00f70733          	add	a4,a4,a5
40000a60:	000c4783          	lbu	a5,0(s8)
40000a64:	fd070b13          	addi	s6,a4,-48
40000a68:	fd078713          	addi	a4,a5,-48
40000a6c:	0ff77713          	andi	a4,a4,255
40000a70:	fce5fee3          	bgeu	a1,a4,40000a4c <vsprintf+0x398>
40000a74:	d0dff06f          	jal	zero,40000780 <vsprintf+0xcc>
40000a78:	400017b7          	lui	a5,0x40001
40000a7c:	03c00513          	addi	a0,zero,60
40000a80:	cd878493          	addi	s1,a5,-808 # 40000cd8 <_etext+0x118>
40000a84:	f4dff06f          	jal	zero,400009d0 <vsprintf+0x31c>
40000a88:	0ff7f513          	andi	a0,a5,255
40000a8c:	01412223          	sw	s4,4(sp)
40000a90:	ca0506e3          	beq	a0,zero,4000073c <vsprintf+0x88>
40000a94:	c05ff0ef          	jal	ra,40000698 <printchar.part.0>
40000a98:	ca5ff06f          	jal	zero,4000073c <vsprintf+0x88>
40000a9c:	bfdff0ef          	jal	ra,40000698 <printchar.part.0>
40000aa0:	f4dff06f          	jal	zero,400009ec <vsprintf+0x338>
40000aa4:	000a8513          	addi	a0,s5,0
40000aa8:	bf1ff0ef          	jal	ra,40000698 <printchar.part.0>
40000aac:	f75ff06f          	jal	zero,40000a20 <vsprintf+0x36c>
40000ab0:	02d00513          	addi	a0,zero,45
40000ab4:	be5ff0ef          	jal	ra,40000698 <printchar.part.0>
40000ab8:	e71ff06f          	jal	zero,40000928 <vsprintf+0x274>

40000abc <printf>:
40000abc:	fc010113          	addi	sp,sp,-64
40000ac0:	02410313          	addi	t1,sp,36
40000ac4:	02b12223          	sw	a1,36(sp)
40000ac8:	02c12423          	sw	a2,40(sp)
40000acc:	00050593          	addi	a1,a0,0
40000ad0:	00030613          	addi	a2,t1,0
40000ad4:	00000513          	addi	a0,zero,0
40000ad8:	00112e23          	sw	ra,28(sp)
40000adc:	02d12623          	sw	a3,44(sp)
40000ae0:	02e12823          	sw	a4,48(sp)
40000ae4:	02f12a23          	sw	a5,52(sp)
40000ae8:	03012c23          	sw	a6,56(sp)
40000aec:	03112e23          	sw	a7,60(sp)
40000af0:	00612623          	sw	t1,12(sp)
40000af4:	bc1ff0ef          	jal	ra,400006b4 <vsprintf>
40000af8:	01c12083          	lw	ra,28(sp)
40000afc:	04010113          	addi	sp,sp,64
40000b00:	00008067          	jalr	zero,0(ra)

40000b04 <__udivsi3>:
40000b04:	00050713          	addi	a4,a0,0
40000b08:	04a5fc63          	bgeu	a1,a0,40000b60 <__udivsi3+0x5c>
40000b0c:	0405ca63          	blt	a1,zero,40000b60 <__udivsi3+0x5c>
40000b10:	02000513          	addi	a0,zero,32
40000b14:	00100793          	addi	a5,zero,1
40000b18:	00c0006f          	jal	zero,40000b24 <__udivsi3+0x20>
40000b1c:	02050c63          	beq	a0,zero,40000b54 <__udivsi3+0x50>
40000b20:	0005cc63          	blt	a1,zero,40000b38 <__udivsi3+0x34>
40000b24:	00159593          	slli	a1,a1,0x1
40000b28:	fff50513          	addi	a0,a0,-1
40000b2c:	00179793          	slli	a5,a5,0x1
40000b30:	fee5e6e3          	bltu	a1,a4,40000b1c <__udivsi3+0x18>
40000b34:	02078263          	beq	a5,zero,40000b58 <__udivsi3+0x54>
40000b38:	00000513          	addi	a0,zero,0
40000b3c:	00b76663          	bltu	a4,a1,40000b48 <__udivsi3+0x44>
40000b40:	40b70733          	sub	a4,a4,a1
40000b44:	00f56533          	or	a0,a0,a5
40000b48:	0017d793          	srli	a5,a5,0x1
40000b4c:	0015d593          	srli	a1,a1,0x1
40000b50:	fe0796e3          	bne	a5,zero,40000b3c <__udivsi3+0x38>
40000b54:	00008067          	jalr	zero,0(ra)
40000b58:	00000513          	addi	a0,zero,0
40000b5c:	00008067          	jalr	zero,0(ra)
40000b60:	00100793          	addi	a5,zero,1
40000b64:	00000513          	addi	a0,zero,0
40000b68:	fd5ff06f          	jal	zero,40000b3c <__udivsi3+0x38>

40000b6c <__umodsi3>:
40000b6c:	04a5f663          	bgeu	a1,a0,40000bb8 <__umodsi3+0x4c>
40000b70:	0405c463          	blt	a1,zero,40000bb8 <__umodsi3+0x4c>
40000b74:	02000713          	addi	a4,zero,32
40000b78:	00100793          	addi	a5,zero,1
40000b7c:	00c0006f          	jal	zero,40000b88 <__umodsi3+0x1c>
40000b80:	02070863          	beq	a4,zero,40000bb0 <__umodsi3+0x44>
40000b84:	0005cc63          	blt	a1,zero,40000b9c <__umodsi3+0x30>
40000b88:	00159593          	slli	a1,a1,0x1
40000b8c:	fff70713          	addi	a4,a4,-1
40000b90:	00179793          	slli	a5,a5,0x1
40000b94:	fea5e6e3          	bltu	a1,a0,40000b80 <__umodsi3+0x14>
40000b98:	00078e63          	beq	a5,zero,40000bb4 <__umodsi3+0x48>
40000b9c:	0017d793          	srli	a5,a5,0x1
40000ba0:	00b56463          	bltu	a0,a1,40000ba8 <__umodsi3+0x3c>
40000ba4:	40b50533          	sub	a0,a0,a1
40000ba8:	0015d593          	srli	a1,a1,0x1
40000bac:	fe0798e3          	bne	a5,zero,40000b9c <__umodsi3+0x30>
40000bb0:	00008067          	jalr	zero,0(ra)
40000bb4:	00008067          	jalr	zero,0(ra)
40000bb8:	00100793          	addi	a5,zero,1
40000bbc:	fe1ff06f          	jal	zero,40000b9c <__umodsi3+0x30>
